; Function Attrs: nounwind uwtable
define internal void @drbg_ctr_free(ptr noundef %0) #0 {
  %.not = icmp eq ptr %0, null
  br i1 %.not, label %15, label %2

2:                                                ; preds = %1
  %3 = getelementptr inbounds nuw i8, ptr %0, i64 240
  %4 = load ptr, ptr %3, align 8, !tbaa !3
  %.not11 = icmp eq ptr %4, null
  br i1 %.not11, label %15, label %5

5:                                                ; preds = %2
  %6 = load ptr, ptr %4, align 8, !tbaa !12
  tail call void @EVP_CIPHER_CTX_free(ptr noundef %6) #7
  %7 = getelementptr inbounds nuw i8, ptr %4, i64 8
  %8 = load ptr, ptr %7, align 8, !tbaa !16
  tail call void @EVP_CIPHER_CTX_free(ptr noundef %8) #7
  %9 = getelementptr inbounds nuw i8, ptr %4, i64 16
  %10 = load ptr, ptr %9, align 8, !tbaa !17
  tail call void @EVP_CIPHER_CTX_free(ptr noundef %10) #7
  %11 = getelementptr inbounds nuw i8, ptr %4, i64 24
  %12 = load ptr, ptr %11, align 8, !tbaa !18
  tail call void @EVP_CIPHER_free(ptr noundef %12) #7
  %13 = getelementptr inbounds nuw i8, ptr %4, i64 32
  %14 = load ptr, ptr %13, align 8, !tbaa !19
  tail call void @EVP_CIPHER_free(ptr noundef %14) #7
  tail call void @CRYPTO_secure_clear_free(ptr noundef nonnull %4, i64 noundef 176, ptr noundef nonnull @.str, i32 noundef 656) #7
  br label %15

15:                                               ; preds = %5, %2, %1
  tail call void @ossl_rand_drbg_free(ptr noundef %0) #7
  ret void
}